target datalayout = "e-m:e-p270:32:32-p271:32:32-p272:64:64-i64:64-i128:128-f80:128-n8:16:32:64-S128"
target triple = "x86_64-pc-linux-gnu"

%struct.archive_read = type { %struct.archive, ptr, i32, i64, i64, %struct.archive_read_client, [16 x %struct.archive_read_filter_bidder], ptr, i32, i64, i32, i32, [16 x %struct.archive_format_descriptor], ptr, ptr, ptr, %struct.anon }
%struct.archive = type { i32, i32, ptr, i32, ptr, i32, i32, ptr, %struct.archive_string, ptr, i32, i32, ptr, ptr, i64, i64, i64, i8, i64 }
%struct.archive_string = type { ptr, i64, i64 }
%struct.archive_read_client = type { ptr, ptr, ptr, ptr, ptr, ptr, i32, i32, i64, ptr }
%struct.archive_read_filter_bidder = type { ptr, ptr, ptr }
%struct.archive_format_descriptor = type { ptr, ptr, ptr, ptr, ptr, ptr, ptr, ptr, ptr, ptr, ptr }
%struct.anon = type { ptr, ptr, i32, ptr, ptr }
%struct.archive_read_passphrase = type { ptr, ptr }

@.str.3 = private unnamed_addr constant [22 x i8] c"Can't allocate memory\00", align 1

; Function Attrs: nounwind uwtable
define internal void @insert_passphrase_to_head(ptr noundef %0, ptr noundef %1) #0 {
  %3 = alloca ptr, align 8
  %4 = alloca ptr, align 8
  store ptr %0, ptr %3, align 8, !tbaa !11
  store ptr %1, ptr %4, align 8, !tbaa !16
  %5 = load ptr, ptr %3, align 8, !tbaa !11
  %6 = getelementptr inbounds nuw %struct.archive_read, ptr %5, i32 0, i32 16
  %7 = getelementptr inbounds nuw %struct.anon, ptr %6, i32 0, i32 0
  %8 = load ptr, ptr %7, align 8, !tbaa !40
  %9 = load ptr, ptr %4, align 8, !tbaa !16
  %10 = getelementptr inbounds nuw %struct.archive_read_passphrase, ptr %9, i32 0, i32 1
  store ptr %8, ptr %10, align 8, !tbaa !35
  %11 = load ptr, ptr %4, align 8, !tbaa !16
  %12 = load ptr, ptr %3, align 8, !tbaa !11
  %13 = getelementptr inbounds nuw %struct.archive_read, ptr %12, i32 0, i32 16
  %14 = getelementptr inbounds nuw %struct.anon, ptr %13, i32 0, i32 0
  store ptr %11, ptr %14, align 8, !tbaa !40
  %15 = load ptr, ptr %3, align 8, !tbaa !11
  %16 = getelementptr inbounds nuw %struct.archive_read, ptr %15, i32 0, i32 16
  %17 = getelementptr inbounds nuw %struct.anon, ptr %16, i32 0, i32 0
  %18 = load ptr, ptr %3, align 8, !tbaa !11
  %19 = getelementptr inbounds nuw %struct.archive_read, ptr %18, i32 0, i32 16
  %20 = getelementptr inbounds nuw %struct.anon, ptr %19, i32 0, i32 1
  %21 = load ptr, ptr %20, align 8, !tbaa !20
  %22 = icmp eq ptr %17, %21
  br i1 %22, label %23, label %31

23:                                               ; preds = %2
  %24 = load ptr, ptr %4, align 8, !tbaa !16
  %25 = getelementptr inbounds nuw %struct.archive_read_passphrase, ptr %24, i32 0, i32 1
  %26 = load ptr, ptr %3, align 8, !tbaa !11
  %27 = getelementptr inbounds nuw %struct.archive_read, ptr %26, i32 0, i32 16
  %28 = getelementptr inbounds nuw %struct.anon, ptr %27, i32 0, i32 1
  store ptr %25, ptr %28, align 8, !tbaa !20
  %29 = load ptr, ptr %4, align 8, !tbaa !16
  %30 = getelementptr inbounds nuw %struct.archive_read_passphrase, ptr %29, i32 0, i32 1
  store ptr null, ptr %30, align 8, !tbaa !35
  br label %31

31:                                               ; preds = %23, %2
  ret void
}

; Function Attrs: nounwind uwtable
define internal ptr @new_read_passphrase(ptr noundef %0, ptr noundef %1) #0 {
  %3 = alloca ptr, align 8
  %4 = alloca ptr, align 8
  %5 = alloca ptr, align 8
  %6 = alloca ptr, align 8
  %7 = alloca i32, align 4
  store ptr %0, ptr %4, align 8, !tbaa !11
  store ptr %1, ptr %5, align 8, !tbaa !9
  call void @llvm.lifetime.start.p0(i64 8, ptr %6) #5
  %8 = call noalias ptr @malloc(i64 noundef 16) #6
  store ptr %8, ptr %6, align 8, !tbaa !16
  %9 = load ptr, ptr %6, align 8, !tbaa !16
  %10 = icmp eq ptr %9, null
  br i1 %10, label %11, label %14

11:                                               ; preds = %2
  %12 = load ptr, ptr %4, align 8, !tbaa !11
  %13 = getelementptr inbounds nuw %struct.archive_read, ptr %12, i32 0, i32 0
  call void (ptr, i32, ptr, ...) @archive_set_error(ptr noundef %13, i32 noundef 12, ptr noundef @.str.3)
  store ptr null, ptr %3, align 8
  store i32 1, ptr %7, align 4
  br label %29

14:                                               ; preds = %2
  %15 = load ptr, ptr %5, align 8, !tbaa !9
  %16 = call noalias ptr @strdup(ptr noundef %15) #5
  %17 = load ptr, ptr %6, align 8, !tbaa !16
  %18 = getelementptr inbounds nuw %struct.archive_read_passphrase, ptr %17, i32 0, i32 0
  store ptr %16, ptr %18, align 8, !tbaa !18
  %19 = load ptr, ptr %6, align 8, !tbaa !16
  %20 = getelementptr inbounds nuw %struct.archive_read_passphrase, ptr %19, i32 0, i32 0
  %21 = load ptr, ptr %20, align 8, !tbaa !18
  %22 = icmp eq ptr %21, null
  br i1 %22, label %23, label %27

23:                                               ; preds = %14
  %24 = load ptr, ptr %6, align 8, !tbaa !16
  call void @free(ptr noundef %24) #5
  %25 = load ptr, ptr %4, align 8, !tbaa !11
  %26 = getelementptr inbounds nuw %struct.archive_read, ptr %25, i32 0, i32 0
  call void (ptr, i32, ptr, ...) @archive_set_error(ptr noundef %26, i32 noundef 12, ptr noundef @.str.3)
  store ptr null, ptr %3, align 8
  store i32 1, ptr %7, align 4
  br label %29

27:                                               ; preds = %14
  %28 = load ptr, ptr %6, align 8, !tbaa !16
  store ptr %28, ptr %3, align 8
  store i32 1, ptr %7, align 4
  br label %29

29:                                               ; preds = %27, %23, %11
  call void @llvm.lifetime.end.p0(i64 8, ptr %6) #5
  %30 = load ptr, ptr %3, align 8
  ret ptr %30
}

; Function Attrs: nounwind uwtable
define internal void @add_passphrase_to_tail(ptr noundef %0, ptr noundef %1) #0 {
  %3 = alloca ptr, align 8
  %4 = alloca ptr, align 8
  store ptr %0, ptr %3, align 8, !tbaa !11
  store ptr %1, ptr %4, align 8, !tbaa !16
  %5 = load ptr, ptr %4, align 8, !tbaa !16
  %6 = load ptr, ptr %3, align 8, !tbaa !11
  %7 = getelementptr inbounds nuw %struct.archive_read, ptr %6, i32 0, i32 16
  %8 = getelementptr inbounds nuw %struct.anon, ptr %7, i32 0, i32 1
  %9 = load ptr, ptr %8, align 8, !tbaa !20
  store ptr %5, ptr %9, align 8, !tbaa !16
  %10 = load ptr, ptr %4, align 8, !tbaa !16
  %11 = getelementptr inbounds nuw %struct.archive_read_passphrase, ptr %10, i32 0, i32 1
  %12 = load ptr, ptr %3, align 8, !tbaa !11
  %13 = getelementptr inbounds nuw %struct.archive_read, ptr %12, i32 0, i32 16
  %14 = getelementptr inbounds nuw %struct.anon, ptr %13, i32 0, i32 1
  store ptr %11, ptr %14, align 8, !tbaa !20
  %15 = load ptr, ptr %4, align 8, !tbaa !16
  %16 = getelementptr inbounds nuw %struct.archive_read_passphrase, ptr %15, i32 0, i32 1
  store ptr null, ptr %16, align 8, !tbaa !35
  ret void
}

; Function Attrs: nounwind uwtable
define internal ptr @remove_passphrases_from_head(ptr noundef %0) #0 {
  %2 = alloca ptr, align 8
  %3 = alloca ptr, align 8
  store ptr %0, ptr %2, align 8, !tbaa !11
  call void @llvm.lifetime.start.p0(i64 8, ptr %3) #5
  %4 = load ptr, ptr %2, align 8, !tbaa !11
  %5 = getelementptr inbounds nuw %struct.archive_read, ptr %4, i32 0, i32 16
  %6 = getelementptr inbounds nuw %struct.anon, ptr %5, i32 0, i32 0
  %7 = load ptr, ptr %6, align 8, !tbaa !40
  store ptr %7, ptr %3, align 8, !tbaa !16
  %8 = load ptr, ptr %3, align 8, !tbaa !16
  %9 = icmp ne ptr %8, null
  br i1 %9, label %10, label %17

10:                                               ; preds = %1
  %11 = load ptr, ptr %3, align 8, !tbaa !16
  %12 = getelementptr inbounds nuw %struct.archive_read_passphrase, ptr %11, i32 0, i32 1
  %13 = load ptr, ptr %12, align 8, !tbaa !35
  %14 = load ptr, ptr %2, align 8, !tbaa !11
  %15 = getelementptr inbounds nuw %struct.archive_read, ptr %14, i32 0, i32 16
  %16 = getelementptr inbounds nuw %struct.anon, ptr %15, i32 0, i32 0
  store ptr %13, ptr %16, align 8, !tbaa !40
  br label %17

17:                                               ; preds = %10, %1
  %18 = load ptr, ptr %3, align 8, !tbaa !16
  call void @llvm.lifetime.end.p0(i64 8, ptr %3) #5
  ret ptr %18
}

; Function Attrs: nounwind uwtable
define dso_local ptr @__archive_read_next_passphrase(ptr noundef %0) #0 {
  %2 = alloca ptr, align 8
  %3 = alloca ptr, align 8
  %4 = alloca ptr, align 8
  %5 = alloca ptr, align 8
  %6 = alloca i32, align 4
  %7 = alloca i32, align 4
  store ptr %0, ptr %3, align 8, !tbaa !11
  call void @llvm.lifetime.start.p0(i64 8, ptr %4) #5
  call void @llvm.lifetime.start.p0(i64 8, ptr %5) #5
  %8 = load ptr, ptr %3, align 8, !tbaa !11
  %9 = getelementptr inbounds nuw %struct.archive_read, ptr %8, i32 0, i32 16
  %10 = getelementptr inbounds nuw %struct.anon, ptr %9, i32 0, i32 2
  %11 = load i32, ptr %10, align 8, !tbaa !39
  %12 = icmp slt i32 %11, 0
  br i1 %12, label %13, label %37

13:                                               ; preds = %1
  call void @llvm.lifetime.start.p0(i64 4, ptr %6) #5
  store i32 0, ptr %6, align 4, !tbaa !13
  %14 = load ptr, ptr %3, align 8, !tbaa !11
  %15 = getelementptr inbounds nuw %struct.archive_read, ptr %14, i32 0, i32 16
  %16 = getelementptr inbounds nuw %struct.anon, ptr %15, i32 0, i32 0
  %17 = load ptr, ptr %16, align 8, !tbaa !40
  store ptr %17, ptr %4, align 8, !tbaa !16
  br label %18

18:                                               ; preds = %24, %13
  %19 = load ptr, ptr %4, align 8, !tbaa !16
  %20 = icmp ne ptr %19, null
  br i1 %20, label %21, label %28

21:                                               ; preds = %18
  %22 = load i32, ptr %6, align 4, !tbaa !13
  %23 = add nsw i32 %22, 1
  store i32 %23, ptr %6, align 4, !tbaa !13
  br label %24

24:                                               ; preds = %21
  %25 = load ptr, ptr %4, align 8, !tbaa !16
  %26 = getelementptr inbounds nuw %struct.archive_read_passphrase, ptr %25, i32 0, i32 1
  %27 = load ptr, ptr %26, align 8, !tbaa !35
  store ptr %27, ptr %4, align 8, !tbaa !16
  br label %18, !llvm.loop !41

28:                                               ; preds = %18
  %29 = load i32, ptr %6, align 4, !tbaa !13
  %30 = load ptr, ptr %3, align 8, !tbaa !11
  %31 = getelementptr inbounds nuw %struct.archive_read, ptr %30, i32 0, i32 16
  %32 = getelementptr inbounds nuw %struct.anon, ptr %31, i32 0, i32 2
  store i32 %29, ptr %32, align 8, !tbaa !39
  %33 = load ptr, ptr %3, align 8, !tbaa !11
  %34 = getelementptr inbounds nuw %struct.archive_read, ptr %33, i32 0, i32 16
  %35 = getelementptr inbounds nuw %struct.anon, ptr %34, i32 0, i32 0
  %36 = load ptr, ptr %35, align 8, !tbaa !40
  store ptr %36, ptr %4, align 8, !tbaa !16
  call void @llvm.lifetime.end.p0(i64 4, ptr %6) #5
  br label %83

37:                                               ; preds = %1
  %38 = load ptr, ptr %3, align 8, !tbaa !11
  %39 = getelementptr inbounds nuw %struct.archive_read, ptr %38, i32 0, i32 16
  %40 = getelementptr inbounds nuw %struct.anon, ptr %39, i32 0, i32 2
  %41 = load i32, ptr %40, align 8, !tbaa !39
  %42 = icmp sgt i32 %41, 1
  br i1 %42, label %43, label %57

43:                                               ; preds = %37
  %44 = load ptr, ptr %3, align 8, !tbaa !11
  %45 = getelementptr inbounds nuw %struct.archive_read, ptr %44, i32 0, i32 16
  %46 = getelementptr inbounds nuw %struct.anon, ptr %45, i32 0, i32 2
  %47 = load i32, ptr %46, align 8, !tbaa !39
  %48 = add nsw i32 %47, -1
  store i32 %48, ptr %46, align 8, !tbaa !39
  %49 = load ptr, ptr %3, align 8, !tbaa !11
  %50 = call ptr @remove_passphrases_from_head(ptr noundef %49)
  store ptr %50, ptr %4, align 8, !tbaa !16
  %51 = load ptr, ptr %3, align 8, !tbaa !11
  %52 = load ptr, ptr %4, align 8, !tbaa !16
  call void @add_passphrase_to_tail(ptr noundef %51, ptr noundef %52)
  %53 = load ptr, ptr %3, align 8, !tbaa !11
  %54 = getelementptr inbounds nuw %struct.archive_read, ptr %53, i32 0, i32 16
  %55 = getelementptr inbounds nuw %struct.anon, ptr %54, i32 0, i32 0
  %56 = load ptr, ptr %55, align 8, !tbaa !40
  store ptr %56, ptr %4, align 8, !tbaa !16
  br label %82

57:                                               ; preds = %37
  %58 = load ptr, ptr %3, align 8, !tbaa !11
  %59 = getelementptr inbounds nuw %struct.archive_read, ptr %58, i32 0, i32 16
  %60 = getelementptr inbounds nuw %struct.anon, ptr %59, i32 0, i32 2
  %61 = load i32, ptr %60, align 8, !tbaa !39
  %62 = icmp eq i32 %61, 1
  br i1 %62, label %63, label %80

63:                                               ; preds = %57
  %64 = load ptr, ptr %3, align 8, !tbaa !11
  %65 = getelementptr inbounds nuw %struct.archive_read, ptr %64, i32 0, i32 16
  %66 = getelementptr inbounds nuw %struct.anon, ptr %65, i32 0, i32 2
  store i32 0, ptr %66, align 8, !tbaa !39
  %67 = load ptr, ptr %3, align 8, !tbaa !11
  %68 = getelementptr inbounds nuw %struct.archive_read, ptr %67, i32 0, i32 16
  %69 = getelementptr inbounds nuw %struct.anon, ptr %68, i32 0, i32 0
  %70 = load ptr, ptr %69, align 8, !tbaa !40
  %71 = getelementptr inbounds nuw %struct.archive_read_passphrase, ptr %70, i32 0, i32 1
  %72 = load ptr, ptr %71, align 8, !tbaa !35
  %73 = icmp ne ptr %72, null
  br i1 %73, label %74, label %79

74:                                               ; preds = %63
  %75 = load ptr, ptr %3, align 8, !tbaa !11
  %76 = call ptr @remove_passphrases_from_head(ptr noundef %75)
  store ptr %76, ptr %4, align 8, !tbaa !16
  %77 = load ptr, ptr %3, align 8, !tbaa !11
  %78 = load ptr, ptr %4, align 8, !tbaa !16
  call void @add_passphrase_to_tail(ptr noundef %77, ptr noundef %78)
  br label %79

79:                                               ; preds = %74, %63
  store ptr null, ptr %4, align 8, !tbaa !16
  br label %81

80:                                               ; preds = %57
  store ptr null, ptr %4, align 8, !tbaa !16
  br label %81

81:                                               ; preds = %80, %79
  br label %82

82:                                               ; preds = %81, %43
  br label %83

83:                                               ; preds = %82, %28
  %84 = load ptr, ptr %4, align 8, !tbaa !16
  %85 = icmp ne ptr %84, null
  br i1 %85, label %86, label %90

86:                                               ; preds = %83
  %87 = load ptr, ptr %4, align 8, !tbaa !16
  %88 = getelementptr inbounds nuw %struct.archive_read_passphrase, ptr %87, i32 0, i32 0
  %89 = load ptr, ptr %88, align 8, !tbaa !18
  store ptr %89, ptr %5, align 8, !tbaa !9
  br label %126

90:                                               ; preds = %83
  %91 = load ptr, ptr %3, align 8, !tbaa !11
  %92 = getelementptr inbounds nuw %struct.archive_read, ptr %91, i32 0, i32 16
  %93 = getelementptr inbounds nuw %struct.anon, ptr %92, i32 0, i32 3
  %94 = load ptr, ptr %93, align 8, !tbaa !37
  %95 = icmp ne ptr %94, null
  br i1 %95, label %96, label %124

96:                                               ; preds = %90
  %97 = load ptr, ptr %3, align 8, !tbaa !11
  %98 = getelementptr inbounds nuw %struct.archive_read, ptr %97, i32 0, i32 16
  %99 = getelementptr inbounds nuw %struct.anon, ptr %98, i32 0, i32 3
  %100 = load ptr, ptr %99, align 8, !tbaa !37
  %101 = load ptr, ptr %3, align 8, !tbaa !11
  %102 = getelementptr inbounds nuw %struct.archive_read, ptr %101, i32 0, i32 0
  %103 = load ptr, ptr %3, align 8, !tbaa !11
  %104 = getelementptr inbounds nuw %struct.archive_read, ptr %103, i32 0, i32 16
  %105 = getelementptr inbounds nuw %struct.anon, ptr %104, i32 0, i32 4
  %106 = load ptr, ptr %105, align 8, !tbaa !38
  %107 = call ptr %100(ptr noundef %102, ptr noundef %106)
  store ptr %107, ptr %5, align 8, !tbaa !9
  %108 = load ptr, ptr %5, align 8, !tbaa !9
  %109 = icmp ne ptr %108, null
  br i1 %109, label %110, label %123

110:                                              ; preds = %96
  %111 = load ptr, ptr %3, align 8, !tbaa !11
  %112 = load ptr, ptr %5, align 8, !tbaa !9
  %113 = call ptr @new_read_passphrase(ptr noundef %111, ptr noundef %112)
  store ptr %113, ptr %4, align 8, !tbaa !16
  %114 = load ptr, ptr %4, align 8, !tbaa !16
  %115 = icmp eq ptr %114, null
  br i1 %115, label %116, label %117

116:                                              ; preds = %110
  store ptr null, ptr %2, align 8
  store i32 1, ptr %7, align 4
  br label %128

117:                                              ; preds = %110
  %118 = load ptr, ptr %3, align 8, !tbaa !11
  %119 = load ptr, ptr %4, align 8, !tbaa !16
  call void @insert_passphrase_to_head(ptr noundef %118, ptr noundef %119)
  %120 = load ptr, ptr %3, align 8, !tbaa !11
  %121 = getelementptr inbounds nuw %struct.archive_read, ptr %120, i32 0, i32 16
  %122 = getelementptr inbounds nuw %struct.anon, ptr %121, i32 0, i32 2
  store i32 1, ptr %122, align 8, !tbaa !39
  br label %123

123:                                              ; preds = %117, %96
  br label %125

124:                                              ; preds = %90
  store ptr null, ptr %5, align 8, !tbaa !9
  br label %125

125:                                              ; preds = %124, %123
  br label %126

126:                                              ; preds = %125, %86
  %127 = load ptr, ptr %5, align 8, !tbaa !9
  store ptr %127, ptr %2, align 8
  store i32 1, ptr %7, align 4
  br label %128

128:                                              ; preds = %126, %116
  call void @llvm.lifetime.end.p0(i64 8, ptr %5) #5
  call void @llvm.lifetime.end.p0(i64 8, ptr %4) #5
  %129 = load ptr, ptr %2, align 8
  ret ptr %129
}