; Function Attrs: nounwind uwtable
define dso_local ptr @__archive_read_next_passphrase(ptr noundef %0) local_unnamed_addr #0 {
  %2 = getelementptr inbounds nuw i8, ptr %0, i64 2096
  %3 = getelementptr inbounds nuw i8, ptr %0, i64 2112
  %4 = load i32, ptr %3, align 8, !tbaa !32
  %5 = icmp slt i32 %4, 0
  br i1 %5, label %.preheader, label %8

.preheader:                                       ; preds = %1
  %.03551 = load ptr, ptr %2, align 8, !tbaa !28
  %.not4252 = icmp eq ptr %.03551, null
  br i1 %.not4252, label %._crit_edge, label %.lr.ph

.lr.ph:                                           ; preds = %.preheader, %.lr.ph
  %.03554 = phi ptr [ %.035, %.lr.ph ], [ %.03551, %.preheader ]
  %.053 = phi i32 [ %6, %.lr.ph ], [ 0, %.preheader ]
  %6 = add nuw nsw i32 %.053, 1
  %7 = getelementptr inbounds nuw i8, ptr %.03554, i64 8
  %.035 = load ptr, ptr %7, align 8, !tbaa !28
  %.not42 = icmp eq ptr %.035, null
  br i1 %.not42, label %._crit_edge, label %.lr.ph, !llvm.loop !33

._crit_edge:                                      ; preds = %.lr.ph, %.preheader
  %.0.lcssa = phi i32 [ 0, %.preheader ], [ %6, %.lr.ph ]
  store i32 %.0.lcssa, ptr %3, align 8, !tbaa !32
  br label %27

8:                                                ; preds = %1
  %9 = icmp samesign ugt i32 %4, 1
  br i1 %9, label %10, label %19

10:                                               ; preds = %8
  %11 = add nsw i32 %4, -1
  store i32 %11, ptr %3, align 8, !tbaa !32
  %12 = load ptr, ptr %2, align 8, !tbaa !35
  %.not.i = icmp eq ptr %12, null
  br i1 %.not.i, label %remove_passphrases_from_head.exit, label %13

13:                                               ; preds = %10
  %14 = getelementptr inbounds nuw i8, ptr %12, i64 8
  %15 = load ptr, ptr %14, align 8, !tbaa !29
  store ptr %15, ptr %2, align 8, !tbaa !35
  br label %remove_passphrases_from_head.exit

remove_passphrases_from_head.exit:                ; preds = %10, %13
  %16 = getelementptr inbounds nuw i8, ptr %0, i64 2104
  %17 = load ptr, ptr %16, align 8, !tbaa !12
  store ptr %12, ptr %17, align 8, !tbaa !28
  %18 = getelementptr inbounds nuw i8, ptr %12, i64 8
  store ptr %18, ptr %16, align 8, !tbaa !12
  store ptr null, ptr %18, align 8, !tbaa !29
  %.1.pre = load ptr, ptr %2, align 8, !tbaa !35
  br label %27

19:                                               ; preds = %8
  %20 = icmp eq i32 %4, 1
  br i1 %20, label %21, label %.thread

21:                                               ; preds = %19
  store i32 0, ptr %3, align 8, !tbaa !32
  %22 = load ptr, ptr %2, align 8, !tbaa !35
  %23 = getelementptr inbounds nuw i8, ptr %22, i64 8
  %24 = load ptr, ptr %23, align 8, !tbaa !29
  %.not = icmp eq ptr %24, null
  br i1 %.not, label %.thread, label %remove_passphrases_from_head.exit47

remove_passphrases_from_head.exit47:              ; preds = %21
  store ptr %24, ptr %2, align 8, !tbaa !35
  %25 = getelementptr inbounds nuw i8, ptr %0, i64 2104
  %26 = load ptr, ptr %25, align 8, !tbaa !12
  store ptr %22, ptr %26, align 8, !tbaa !28
  store ptr %23, ptr %25, align 8, !tbaa !12
  store ptr null, ptr %23, align 8, !tbaa !29
  br label %.thread

27:                                               ; preds = %remove_passphrases_from_head.exit, %._crit_edge
  %.1 = phi ptr [ %.1.pre, %remove_passphrases_from_head.exit ], [ %.03551, %._crit_edge ]
  %.not43 = icmp eq ptr %.1, null
  br i1 %.not43, label %.thread, label %28

28:                                               ; preds = %27
  %29 = load ptr, ptr %.1, align 8, !tbaa !7
  br label %49

.thread:                                          ; preds = %19, %21, %remove_passphrases_from_head.exit47, %27
  %30 = getelementptr inbounds nuw i8, ptr %0, i64 2120
  %31 = load ptr, ptr %30, align 8, !tbaa !30
  %.not44 = icmp eq ptr %31, null
  br i1 %.not44, label %49, label %32

32:                                               ; preds = %.thread
  %33 = getelementptr inbounds nuw i8, ptr %0, i64 2128
  %34 = load ptr, ptr %33, align 8, !tbaa !31
  %35 = tail call ptr %31(ptr noundef nonnull %0, ptr noundef %34) #6
  %.not45 = icmp eq ptr %35, null
  br i1 %.not45, label %49, label %36

36:                                               ; preds = %32
  %37 = tail call noalias dereferenceable_or_null(16) ptr @malloc(i64 noundef 16) #7
  %38 = icmp eq ptr %37, null
  br i1 %38, label %new_read_passphrase.exit.thread, label %39

39:                                               ; preds = %36
  %40 = tail call noalias ptr @strdup(ptr noundef nonnull readonly %35) #6
  store ptr %40, ptr %37, align 8, !tbaa !7
  %41 = icmp eq ptr %40, null
  br i1 %41, label %42, label %new_read_passphrase.exit

42:                                               ; preds = %39
  tail call void @free(ptr noundef nonnull %37) #6
  br label %new_read_passphrase.exit.thread

new_read_passphrase.exit.thread:                  ; preds = %36, %42
  tail call void (ptr, i32, ptr, ...) @archive_set_error(ptr noundef nonnull %0, i32 noundef 12, ptr noundef nonnull @.str.3) #6
  br label %49

new_read_passphrase.exit:                         ; preds = %39
  %43 = load ptr, ptr %2, align 8, !tbaa !35
  %44 = getelementptr inbounds nuw i8, ptr %37, i64 8
  store ptr %43, ptr %44, align 8, !tbaa !29
  store ptr %37, ptr %2, align 8, !tbaa !35
  %45 = getelementptr inbounds nuw i8, ptr %0, i64 2104
  %46 = load ptr, ptr %45, align 8, !tbaa !12
  %47 = icmp eq ptr %2, %46
  br i1 %47, label %48, label %insert_passphrase_to_head.exit

48:                                               ; preds = %new_read_passphrase.exit
  store ptr %44, ptr %45, align 8, !tbaa !12
  store ptr null, ptr %44, align 8, !tbaa !29
  br label %insert_passphrase_to_head.exit

insert_passphrase_to_head.exit:                   ; preds = %new_read_passphrase.exit, %48
  store i32 1, ptr %3, align 8, !tbaa !32
  br label %49

49:                                               ; preds = %new_read_passphrase.exit.thread, %28, %32, %insert_passphrase_to_head.exit, %.thread
  %.036 = phi ptr [ %29, %28 ], [ %35, %insert_passphrase_to_head.exit ], [ null, %32 ], [ null, %.thread ], [ null, %new_read_passphrase.exit.thread ]
  ret ptr %.036
}